target datalayout = "e-m:e-p270:32:32-p271:32:32-p272:64:64-i64:64-i128:128-f80:128-n8:16:32:64-S128"
target triple = "x86_64-pc-linux-gnu"

%"struct.icu_77::FormattedStringBuilder::Field" = type { i8 }
%"struct.icu_77::number::impl::UFormattedNumberRangeImpl" = type { %"struct.icu_77::UFormattedValueImpl", %"class.icu_77::IcuCApiHelper.0", [4 x i8], %"class.icu_77::number::FormattedNumberRange", %"class.icu_77::number::impl::UFormattedNumberRangeData" }
%"struct.icu_77::UFormattedValueImpl" = type { %"class.icu_77::IcuCApiHelper", ptr }
%"class.icu_77::IcuCApiHelper" = type { i32 }
%"class.icu_77::IcuCApiHelper.0" = type { i32 }
%"class.icu_77::number::FormattedNumberRange" = type <{ %"class.icu_77::FormattedValue", ptr, i32, [4 x i8] }>
%"class.icu_77::FormattedValue" = type { ptr }
%"class.icu_77::number::impl::UFormattedNumberRangeData" = type { %"class.icu_77::FormattedValueStringBuilderImpl.base", [4 x i8], %"class.icu_77::number::impl::DecimalQuantity", %"class.icu_77::number::impl::DecimalQuantity", i32, [4 x i8] }
%"class.icu_77::FormattedValueStringBuilderImpl.base" = type <{ %"class.icu_77::FormattedValue", %"class.icu_77::FormattedStringBuilder", %"struct.icu_77::FormattedStringBuilder::Field", [7 x i8], %"class.icu_77::MaybeStackArray.3", i32 }>
%"class.icu_77::FormattedStringBuilder" = type { i8, %"union.icu_77::FormattedStringBuilder::ValueOrHeapArray", %"union.icu_77::FormattedStringBuilder::ValueOrHeapArray.1", i32, i32 }
%"union.icu_77::FormattedStringBuilder::ValueOrHeapArray" = type { %struct.anon, [64 x i8] }
%struct.anon = type { ptr, i32 }
%"union.icu_77::FormattedStringBuilder::ValueOrHeapArray.1" = type { %struct.anon.2, [24 x i8] }
%struct.anon.2 = type { ptr, i32 }
%"class.icu_77::MaybeStackArray.3" = type { ptr, i32, i8, [8 x %"struct.icu_77::SpanInfo"] }
%"struct.icu_77::SpanInfo" = type { i32, i32, i32, i32 }
%"class.icu_77::number::impl::DecimalQuantity" = type <{ %"class.icu_77::IFixedDecimal", i8, [3 x i8], i32, i32, i8, i8, [2 x i8], double, i32, i32, i32, i32, %union.anon, i8, i8, [6 x i8] }>
%"class.icu_77::IFixedDecimal" = type { ptr }
%union.anon = type { %struct.anon.4 }
%struct.anon.4 = type { ptr, i32 }
%"class.icu_77::UObject" = type { ptr }
%"class.icu_77::number::LocalizedNumberRangeFormatter" = type { %"class.icu_77::number::NumberRangeFormatterSettings", %"struct.std::atomic" }
%"class.icu_77::number::NumberRangeFormatterSettings" = type { %"struct.icu_77::number::impl::RangeMacroProps" }
%"struct.icu_77::number::impl::RangeMacroProps" = type { [8 x i8], %"class.icu_77::number::UnlocalizedNumberFormatter", %"class.icu_77::number::UnlocalizedNumberFormatter", i8, i32, i32, [4 x i8], %"class.icu_77::Locale" }
%"class.icu_77::number::UnlocalizedNumberFormatter" = type <{ %"class.icu_77::number::NumberFormatterSettings", [8 x i8] }>
%"class.icu_77::number::NumberFormatterSettings" = type { %"struct.icu_77::number::impl::MacroProps" }
%"struct.icu_77::number::impl::MacroProps" = type { [4 x i8], %"class.icu_77::number::Notation", %"class.icu_77::MeasureUnit", %"class.icu_77::MeasureUnit", %"class.icu_77::number::Precision", i32, %"class.icu_77::number::impl::Grouper", %"class.icu_77::number::impl::Padder", %"class.icu_77::number::IntegerWidth", %"class.icu_77::number::impl::SymbolsWrapper", i32, i32, i8, i32, %"class.icu_77::number::Scale", %"class.icu_77::number::impl::StringProp", %"class.icu_77::number::impl::StringProp", ptr, ptr, i32, [4 x i8], %"class.icu_77::Locale" }
%"class.icu_77::number::Notation" = type { i32, %"union.icu_77::number::Notation::NotationUnion" }
%"union.icu_77::number::Notation::NotationUnion" = type { %"struct.icu_77::number::Notation::NotationUnion::ScientificSettings" }
%"struct.icu_77::number::Notation::NotationUnion::ScientificSettings" = type { i8, i8, i16, i32 }
%"class.icu_77::MeasureUnit" = type <{ %"class.icu_77::UObject", ptr, i16, i8, [5 x i8] }>
%"class.icu_77::number::Precision" = type <{ i32, [4 x i8], %"union.icu_77::number::Precision::PrecisionUnion", i32, [4 x i8] }>
%"union.icu_77::number::Precision::PrecisionUnion" = type { %"struct.icu_77::number::Precision::PrecisionUnion::IncrementSettings" }
%"struct.icu_77::number::Precision::PrecisionUnion::IncrementSettings" = type { i64, i16, i16 }
%"class.icu_77::number::impl::Grouper" = type { i16, i16, i16, i32 }
%"class.icu_77::number::impl::Padder" = type { i32, %union.anon.6 }
%union.anon.6 = type { %struct.anon.7 }
%struct.anon.7 = type { i32, i32 }
%"class.icu_77::number::IntegerWidth" = type <{ %union.anon.8, i8, [3 x i8] }>
%union.anon.8 = type { i32, [4 x i8] }
%"class.icu_77::number::impl::SymbolsWrapper" = type { i32, %union.anon.10 }
%union.anon.10 = type { ptr }
%"class.icu_77::number::Scale" = type <{ i32, [4 x i8], ptr, i32, [4 x i8] }>
%"class.icu_77::number::impl::StringProp" = type { ptr, i16, i32 }
%"class.icu_77::Locale" = type <{ %"class.icu_77::UObject", [12 x i8], [6 x i8], [4 x i8], [2 x i8], i32, [4 x i8], ptr, [157 x i8], [3 x i8], ptr, i8, [7 x i8] }>
%"struct.std::atomic" = type { %"struct.std::__atomic_base" }
%"struct.std::__atomic_base" = type { ptr }
%"struct.icu_77::number::impl::UNumberRangeFormatterData" = type { %"class.icu_77::IcuCApiHelper.5", %"class.icu_77::number::LocalizedNumberRangeFormatter" }
%"class.icu_77::IcuCApiHelper.5" = type { i32 }
%"class.icu_77::StringPiece" = type <{ ptr, i32, [4 x i8] }>

; Function Attrs: mustprogress nounwind uwtable
define linkonce_odr noundef ptr @_ZN6icu_7713IcuCApiHelperI21UFormattedNumberRangeNS_6number4impl25UFormattedNumberRangeImplELi1178881536EE8validateEPKS1_R10UErrorCode(ptr noundef %0, ptr noundef nonnull align 4 dereferenceable(4) %1) #0 comdat align 2 {
  %3 = alloca ptr, align 8
  %4 = alloca ptr, align 8
  %5 = alloca ptr, align 8
  %6 = alloca ptr, align 8
  %7 = alloca i32, align 4
  store ptr %0, ptr %4, align 8, !tbaa !64
  store ptr %1, ptr %5, align 8, !tbaa !22
  %8 = load ptr, ptr %5, align 8, !tbaa !22
  %9 = load i32, ptr %8, align 4, !tbaa !15
  %10 = call noundef signext i8 @_ZL9U_FAILURE10UErrorCode(i32 noundef %9)
  %11 = icmp ne i8 %10, 0
  br i1 %11, label %12, label %13

12:                                               ; preds = %2
  store ptr null, ptr %3, align 8
  br label %34

13:                                               ; preds = %2
  %14 = load ptr, ptr %4, align 8, !tbaa !64
  %15 = icmp eq ptr %14, null
  br i1 %15, label %16, label %18

16:                                               ; preds = %13
  %17 = load ptr, ptr %5, align 8, !tbaa !22
  store i32 1, ptr %17, align 4, !tbaa !15
  store ptr null, ptr %3, align 8
  br label %34

18:                                               ; preds = %13
  call void @llvm.lifetime.start.p0(i64 8, ptr %6) #11
  %19 = load ptr, ptr %4, align 8, !tbaa !64
  store ptr %19, ptr %6, align 8, !tbaa !23
  %20 = load ptr, ptr %6, align 8, !tbaa !23
  %21 = icmp eq ptr %20, null
  br i1 %21, label %24, label %22

22:                                               ; preds = %18
  %23 = getelementptr inbounds i8, ptr %20, i64 16
  br label %24

24:                                               ; preds = %22, %18
  %25 = phi ptr [ %23, %22 ], [ null, %18 ]
  %26 = getelementptr inbounds nuw %"class.icu_77::IcuCApiHelper.0", ptr %25, i32 0, i32 0
  %27 = load i32, ptr %26, align 4, !tbaa !33
  %28 = icmp ne i32 %27, 1178881536
  br i1 %28, label %29, label %31

29:                                               ; preds = %24
  %30 = load ptr, ptr %5, align 8, !tbaa !22
  store i32 3, ptr %30, align 4, !tbaa !15
  store ptr null, ptr %3, align 8
  store i32 1, ptr %7, align 4
  br label %33

31:                                               ; preds = %24
  %32 = load ptr, ptr %6, align 8, !tbaa !23
  store ptr %32, ptr %3, align 8
  store i32 1, ptr %7, align 4
  br label %33

33:                                               ; preds = %31, %29
  call void @llvm.lifetime.end.p0(i64 8, ptr %6) #11
  br label %34

34:                                               ; preds = %33, %16, %12
  %35 = load ptr, ptr %3, align 8
  ret ptr %35
}

; Function Attrs: mustprogress nounwind uwtable
define linkonce_odr void @_ZN6icu_7711StringPieceC2EPKci(ptr noundef nonnull align 8 dereferenceable(12) %0, ptr noundef %1, i32 noundef %2) unnamed_addr #0 comdat align 2 {
  %4 = alloca ptr, align 8
  %5 = alloca ptr, align 8
  %6 = alloca i32, align 4
  store ptr %0, ptr %4, align 8, !tbaa !90
  store ptr %1, ptr %5, align 8, !tbaa !17
  store i32 %2, ptr %6, align 4, !tbaa !14
  %7 = load ptr, ptr %4, align 8
  %8 = getelementptr inbounds nuw %"class.icu_77::StringPiece", ptr %7, i32 0, i32 0
  %9 = load ptr, ptr %5, align 8, !tbaa !17
  store ptr %9, ptr %8, align 8, !tbaa !92
  %10 = getelementptr inbounds nuw %"class.icu_77::StringPiece", ptr %7, i32 0, i32 1
  %11 = load i32, ptr %6, align 4, !tbaa !14
  store i32 %11, ptr %10, align 8, !tbaa !94
  ret void
}

; Function Attrs: inlinehint mustprogress nounwind uwtable
define internal noundef signext i8 @_ZL9U_FAILURE10UErrorCode(i32 noundef %0) #2 {
  %2 = alloca i32, align 4
  store i32 %0, ptr %2, align 4, !tbaa !15
  %3 = load i32, ptr %2, align 4, !tbaa !15
  %4 = icmp sgt i32 %3, 0
  %5 = zext i1 %4 to i8
  ret i8 %5
}

; Function Attrs: mustprogress nounwind uwtable
define linkonce_odr noundef ptr @_ZN6icu_7713IcuCApiHelperI21UFormattedNumberRangeNS_6number4impl25UFormattedNumberRangeImplELi1178881536EE8validateEPS1_R10UErrorCode(ptr noundef %0, ptr noundef nonnull align 4 dereferenceable(4) %1) #0 comdat align 2 {
  %3 = alloca ptr, align 8
  %4 = alloca ptr, align 8
  %5 = alloca ptr, align 8
  %6 = alloca ptr, align 8
  store ptr %0, ptr %3, align 8, !tbaa !64
  store ptr %1, ptr %4, align 8, !tbaa !22
  call void @llvm.lifetime.start.p0(i64 8, ptr %5) #11
  %7 = load ptr, ptr %3, align 8, !tbaa !64
  store ptr %7, ptr %5, align 8, !tbaa !64
  call void @llvm.lifetime.start.p0(i64 8, ptr %6) #11
  %8 = load ptr, ptr %5, align 8, !tbaa !64
  %9 = load ptr, ptr %4, align 8, !tbaa !22
  %10 = call noundef ptr @_ZN6icu_7713IcuCApiHelperI21UFormattedNumberRangeNS_6number4impl25UFormattedNumberRangeImplELi1178881536EE8validateEPKS1_R10UErrorCode(ptr noundef %8, ptr noundef nonnull align 4 dereferenceable(4) %9)
  store ptr %10, ptr %6, align 8, !tbaa !23
  %11 = load ptr, ptr %6, align 8, !tbaa !23
  call void @llvm.lifetime.end.p0(i64 8, ptr %6) #11
  call void @llvm.lifetime.end.p0(i64 8, ptr %5) #11
  ret ptr %11
}

; Function Attrs: mustprogress nounwind uwtable
define linkonce_odr noundef ptr @_ZN6icu_7713IcuCApiHelperI21UNumberRangeFormatterNS_6number4impl25UNumberRangeFormatterDataELi1314014720EE8validateEPKS1_R10UErrorCode(ptr noundef %0, ptr noundef nonnull align 4 dereferenceable(4) %1) #0 comdat align 2 {
  %3 = alloca ptr, align 8
  %4 = alloca ptr, align 8
  %5 = alloca ptr, align 8
  %6 = alloca ptr, align 8
  %7 = alloca i32, align 4
  store ptr %0, ptr %4, align 8, !tbaa !85
  store ptr %1, ptr %5, align 8, !tbaa !22
  %8 = load ptr, ptr %5, align 8, !tbaa !22
  %9 = load i32, ptr %8, align 4, !tbaa !15
  %10 = call noundef signext i8 @_ZL9U_FAILURE10UErrorCode(i32 noundef %9)
  %11 = icmp ne i8 %10, 0
  br i1 %11, label %12, label %13

12:                                               ; preds = %2
  store ptr null, ptr %3, align 8
  br label %29

13:                                               ; preds = %2
  %14 = load ptr, ptr %4, align 8, !tbaa !85
  %15 = icmp eq ptr %14, null
  br i1 %15, label %16, label %18

16:                                               ; preds = %13
  %17 = load ptr, ptr %5, align 8, !tbaa !22
  store i32 1, ptr %17, align 4, !tbaa !15
  store ptr null, ptr %3, align 8
  br label %29

18:                                               ; preds = %13
  call void @llvm.lifetime.start.p0(i64 8, ptr %6) #11
  %19 = load ptr, ptr %4, align 8, !tbaa !85
  store ptr %19, ptr %6, align 8, !tbaa !74
  %20 = load ptr, ptr %6, align 8, !tbaa !74
  %21 = getelementptr inbounds nuw %"class.icu_77::IcuCApiHelper.5", ptr %20, i32 0, i32 0
  %22 = load i32, ptr %21, align 4, !tbaa !88
  %23 = icmp ne i32 %22, 1314014720
  br i1 %23, label %24, label %26

24:                                               ; preds = %18
  %25 = load ptr, ptr %5, align 8, !tbaa !22
  store i32 3, ptr %25, align 4, !tbaa !15
  store ptr null, ptr %3, align 8
  store i32 1, ptr %7, align 4
  br label %28

26:                                               ; preds = %18
  %27 = load ptr, ptr %6, align 8, !tbaa !74
  store ptr %27, ptr %3, align 8
  store i32 1, ptr %7, align 4
  br label %28

28:                                               ; preds = %26, %24
  call void @llvm.lifetime.end.p0(i64 8, ptr %6) #11
  br label %29

29:                                               ; preds = %28, %16, %12
  %30 = load ptr, ptr %3, align 8
  ret ptr %30
}

; Function Attrs: mustprogress uwtable
define void @unumrf_formatDecimalRange_77(ptr noundef %0, ptr noundef %1, i32 noundef %2, ptr noundef %3, i32 noundef %4, ptr noundef %5, ptr noundef %6) #1 {
  %8 = alloca ptr, align 8
  %9 = alloca ptr, align 8
  %10 = alloca i32, align 4
  %11 = alloca ptr, align 8
  %12 = alloca i32, align 4
  %13 = alloca ptr, align 8
  %14 = alloca ptr, align 8
  %15 = alloca ptr, align 8
  %16 = alloca ptr, align 8
  %17 = alloca i32, align 4
  %18 = alloca %"class.icu_77::StringPiece", align 8
  %19 = alloca %"class.icu_77::StringPiece", align 8
  store ptr %0, ptr %8, align 8, !tbaa !85
  store ptr %1, ptr %9, align 8, !tbaa !17
  store i32 %2, ptr %10, align 4, !tbaa !14
  store ptr %3, ptr %11, align 8, !tbaa !17
  store i32 %4, ptr %12, align 4, !tbaa !14
  store ptr %5, ptr %13, align 8, !tbaa !64
  store ptr %6, ptr %14, align 8, !tbaa !22
  call void @llvm.lifetime.start.p0(i64 8, ptr %15) #11
  %20 = load ptr, ptr %8, align 8, !tbaa !85
  %21 = load ptr, ptr %14, align 8, !tbaa !22
  %22 = call noundef ptr @_ZN6icu_7713IcuCApiHelperI21UNumberRangeFormatterNS_6number4impl25UNumberRangeFormatterDataELi1314014720EE8validateEPKS1_R10UErrorCode(ptr noundef %20, ptr noundef nonnull align 4 dereferenceable(4) %21)
  store ptr %22, ptr %15, align 8, !tbaa !74
  call void @llvm.lifetime.start.p0(i64 8, ptr %16) #11
  %23 = load ptr, ptr %13, align 8, !tbaa !64
  %24 = load ptr, ptr %14, align 8, !tbaa !22
  %25 = call noundef ptr @_ZN6icu_7713IcuCApiHelperI21UFormattedNumberRangeNS_6number4impl25UFormattedNumberRangeImplELi1178881536EE8validateEPS1_R10UErrorCode(ptr noundef %23, ptr noundef nonnull align 4 dereferenceable(4) %24)
  store ptr %25, ptr %16, align 8, !tbaa !23
  %26 = load ptr, ptr %14, align 8, !tbaa !22
  %27 = load i32, ptr %26, align 4, !tbaa !15
  %28 = call noundef signext i8 @_ZL9U_FAILURE10UErrorCode(i32 noundef %27)
  %29 = icmp ne i8 %28, 0
  br i1 %29, label %30, label %31

30:                                               ; preds = %7
  store i32 1, ptr %17, align 4
  br label %70

31:                                               ; preds = %7
  %32 = load ptr, ptr %16, align 8, !tbaa !23
  %33 = getelementptr inbounds nuw %"struct.icu_77::number::impl::UFormattedNumberRangeImpl", ptr %32, i32 0, i32 4
  call void @_ZN6icu_7731FormattedValueStringBuilderImpl11resetStringEv(ptr noundef nonnull align 8 dereferenceable(300) %33)
  %34 = load ptr, ptr %16, align 8, !tbaa !23
  %35 = getelementptr inbounds nuw %"struct.icu_77::number::impl::UFormattedNumberRangeImpl", ptr %34, i32 0, i32 4
  %36 = getelementptr inbounds nuw %"class.icu_77::number::impl::UFormattedNumberRangeData", ptr %35, i32 0, i32 2
  call void @_ZN6icu_776number4impl15DecimalQuantity5clearEv(ptr noundef nonnull align 8 dereferenceable(66) %36)
  %37 = load ptr, ptr %16, align 8, !tbaa !23
  %38 = getelementptr inbounds nuw %"struct.icu_77::number::impl::UFormattedNumberRangeImpl", ptr %37, i32 0, i32 4
  %39 = getelementptr inbounds nuw %"class.icu_77::number::impl::UFormattedNumberRangeData", ptr %38, i32 0, i32 3
  call void @_ZN6icu_776number4impl15DecimalQuantity5clearEv(ptr noundef nonnull align 8 dereferenceable(66) %39)
  %40 = load ptr, ptr %16, align 8, !tbaa !23
  %41 = getelementptr inbounds nuw %"struct.icu_77::number::impl::UFormattedNumberRangeImpl", ptr %40, i32 0, i32 4
  %42 = getelementptr inbounds nuw %"class.icu_77::number::impl::UFormattedNumberRangeData", ptr %41, i32 0, i32 2
  %43 = load ptr, ptr %9, align 8, !tbaa !17
  %44 = load i32, ptr %10, align 4, !tbaa !14
  call void @_ZN6icu_7711StringPieceC2EPKci(ptr noundef nonnull align 8 dereferenceable(12) %18, ptr noundef %43, i32 noundef %44)
  %45 = load ptr, ptr %14, align 8, !tbaa !22
  %46 = getelementptr inbounds nuw { ptr, i32 }, ptr %18, i32 0, i32 0
  %47 = load ptr, ptr %46, align 8
  %48 = getelementptr inbounds nuw { ptr, i32 }, ptr %18, i32 0, i32 1
  %49 = load i32, ptr %48, align 8
  %50 = call noundef nonnull align 8 dereferenceable(66) ptr @_ZN6icu_776number4impl15DecimalQuantity14setToDecNumberENS_11StringPieceER10UErrorCode(ptr noundef nonnull align 8 dereferenceable(66) %42, ptr %47, i32 %49, ptr noundef nonnull align 4 dereferenceable(4) %45)
  %51 = load ptr, ptr %16, align 8, !tbaa !23
  %52 = getelementptr inbounds nuw %"struct.icu_77::number::impl::UFormattedNumberRangeImpl", ptr %51, i32 0, i32 4
  %53 = getelementptr inbounds nuw %"class.icu_77::number::impl::UFormattedNumberRangeData", ptr %52, i32 0, i32 3
  %54 = load ptr, ptr %11, align 8, !tbaa !17
  %55 = load i32, ptr %12, align 4, !tbaa !14
  call void @_ZN6icu_7711StringPieceC2EPKci(ptr noundef nonnull align 8 dereferenceable(12) %19, ptr noundef %54, i32 noundef %55)
  %56 = load ptr, ptr %14, align 8, !tbaa !22
  %57 = getelementptr inbounds nuw { ptr, i32 }, ptr %19, i32 0, i32 0
  %58 = load ptr, ptr %57, align 8
  %59 = getelementptr inbounds nuw { ptr, i32 }, ptr %19, i32 0, i32 1
  %60 = load i32, ptr %59, align 8
  %61 = call noundef nonnull align 8 dereferenceable(66) ptr @_ZN6icu_776number4impl15DecimalQuantity14setToDecNumberENS_11StringPieceER10UErrorCode(ptr noundef nonnull align 8 dereferenceable(66) %53, ptr %58, i32 %60, ptr noundef nonnull align 4 dereferenceable(4) %56)
  %62 = load ptr, ptr %15, align 8, !tbaa !74
  %63 = getelementptr inbounds nuw %"struct.icu_77::number::impl::UNumberRangeFormatterData", ptr %62, i32 0, i32 1
  %64 = load ptr, ptr %16, align 8, !tbaa !23
  %65 = getelementptr inbounds nuw %"struct.icu_77::number::impl::UFormattedNumberRangeImpl", ptr %64, i32 0, i32 4
  %66 = load ptr, ptr %9, align 8, !tbaa !17
  %67 = load ptr, ptr %11, align 8, !tbaa !17
  %68 = icmp eq ptr %66, %67
  %69 = load ptr, ptr %14, align 8, !tbaa !22
  call void @_ZNK6icu_776number29LocalizedNumberRangeFormatter10formatImplERNS0_4impl25UFormattedNumberRangeDataEbR10UErrorCode(ptr noundef nonnull align 8 dereferenceable(1216) %63, ptr noundef nonnull align 8 dereferenceable(452) %65, i1 noundef zeroext %68, ptr noundef nonnull align 4 dereferenceable(4) %69)
  store i32 0, ptr %17, align 4
  br label %70

70:                                               ; preds = %31, %30
  call void @llvm.lifetime.end.p0(i64 8, ptr %16) #11
  call void @llvm.lifetime.end.p0(i64 8, ptr %15) #11
  %71 = load i32, ptr %17, align 4
  switch i32 %71, label %73 [
    i32 0, label %72
    i32 1, label %72
  ]

72:                                               ; preds = %70, %70
  ret void

73:                                               ; preds = %70
  unreachable
}