; Function Attrs: mustprogress uwtable
define void @unumrf_formatDecimalRange_77(ptr noundef %0, ptr noundef %1, i32 noundef %2, ptr noundef %3, i32 noundef %4, ptr noundef %5, ptr noundef %6) local_unnamed_addr #1 {
  %8 = load i32, ptr %6, align 4, !tbaa !13
  %9 = icmp slt i32 %8, 1
  br i1 %9, label %10, label %_ZN6icu_7713IcuCApiHelperI21UFormattedNumberRangeNS_6number4impl25UFormattedNumberRangeImplELi1178881536EE8validateEPS1_R10UErrorCode.exit.thread

10:                                               ; preds = %7
  %11 = icmp eq ptr %0, null
  br i1 %11, label %.sink.split.i, label %12

12:                                               ; preds = %10
  %13 = load i32, ptr %0, align 4, !tbaa !43
  %.not9.i = icmp eq i32 %13, 1314014720
  br i1 %.not9.i, label %_ZN6icu_7713IcuCApiHelperI21UNumberRangeFormatterNS_6number4impl25UNumberRangeFormatterDataELi1314014720EE8validateEPKS1_R10UErrorCode.exit, label %.sink.split.i

.sink.split.i:                                    ; preds = %12, %10
  %.sink.i = phi i32 [ 1, %10 ], [ 3, %12 ]
  store i32 %.sink.i, ptr %6, align 4, !tbaa !13
  br label %_ZN6icu_7713IcuCApiHelperI21UFormattedNumberRangeNS_6number4impl25UFormattedNumberRangeImplELi1178881536EE8validateEPS1_R10UErrorCode.exit.thread

_ZN6icu_7713IcuCApiHelperI21UNumberRangeFormatterNS_6number4impl25UNumberRangeFormatterDataELi1314014720EE8validateEPKS1_R10UErrorCode.exit: ; preds = %12
  %14 = icmp eq ptr %5, null
  br i1 %14, label %.sink.split.i.i, label %15

15:                                               ; preds = %_ZN6icu_7713IcuCApiHelperI21UNumberRangeFormatterNS_6number4impl25UNumberRangeFormatterDataELi1314014720EE8validateEPKS1_R10UErrorCode.exit
  %16 = getelementptr inbounds nuw i8, ptr %5, i64 16
  %17 = load i32, ptr %16, align 4, !tbaa !20
  %.not9.i.i = icmp eq i32 %17, 1178881536
  br i1 %.not9.i.i, label %_ZN6icu_7713IcuCApiHelperI21UFormattedNumberRangeNS_6number4impl25UFormattedNumberRangeImplELi1178881536EE8validateEPS1_R10UErrorCode.exit, label %.sink.split.i.i

.sink.split.i.i:                                  ; preds = %15, %_ZN6icu_7713IcuCApiHelperI21UNumberRangeFormatterNS_6number4impl25UNumberRangeFormatterDataELi1314014720EE8validateEPKS1_R10UErrorCode.exit
  %.sink.i.i = phi i32 [ 1, %_ZN6icu_7713IcuCApiHelperI21UNumberRangeFormatterNS_6number4impl25UNumberRangeFormatterDataELi1314014720EE8validateEPKS1_R10UErrorCode.exit ], [ 3, %15 ]
  store i32 %.sink.i.i, ptr %6, align 4, !tbaa !13
  br label %_ZN6icu_7713IcuCApiHelperI21UFormattedNumberRangeNS_6number4impl25UFormattedNumberRangeImplELi1178881536EE8validateEPS1_R10UErrorCode.exit.thread

_ZN6icu_7713IcuCApiHelperI21UFormattedNumberRangeNS_6number4impl25UFormattedNumberRangeImplELi1178881536EE8validateEPS1_R10UErrorCode.exit: ; preds = %15
  %18 = getelementptr inbounds nuw i8, ptr %5, i64 48
  tail call void @_ZN6icu_7731FormattedValueStringBuilderImpl11resetStringEv(ptr noundef nonnull align 8 dereferenceable(300) %18)
  %19 = getelementptr inbounds nuw i8, ptr %5, i64 352
  tail call void @_ZN6icu_776number4impl15DecimalQuantity5clearEv(ptr noundef nonnull align 8 dereferenceable(66) %19)
  %20 = getelementptr inbounds nuw i8, ptr %5, i64 424
  tail call void @_ZN6icu_776number4impl15DecimalQuantity5clearEv(ptr noundef nonnull align 8 dereferenceable(66) %20)
  %21 = tail call noundef nonnull align 8 dereferenceable(66) ptr @_ZN6icu_776number4impl15DecimalQuantity14setToDecNumberENS_11StringPieceER10UErrorCode(ptr noundef nonnull align 8 dereferenceable(66) %19, ptr %1, i32 %2, ptr noundef nonnull align 4 dereferenceable(4) %6)
  %22 = tail call noundef nonnull align 8 dereferenceable(66) ptr @_ZN6icu_776number4impl15DecimalQuantity14setToDecNumberENS_11StringPieceER10UErrorCode(ptr noundef nonnull align 8 dereferenceable(66) %20, ptr %3, i32 %4, ptr noundef nonnull align 4 dereferenceable(4) %6)
  %23 = getelementptr inbounds nuw i8, ptr %0, i64 8
  %24 = icmp eq ptr %1, %3
  tail call void @_ZNK6icu_776number29LocalizedNumberRangeFormatter10formatImplERNS0_4impl25UFormattedNumberRangeDataEbR10UErrorCode(ptr noundef nonnull align 8 dereferenceable(1216) %23, ptr noundef nonnull align 8 dereferenceable(452) %18, i1 noundef zeroext %24, ptr noundef nonnull align 4 dereferenceable(4) %6)
  br label %_ZN6icu_7713IcuCApiHelperI21UFormattedNumberRangeNS_6number4impl25UFormattedNumberRangeImplELi1178881536EE8validateEPS1_R10UErrorCode.exit.thread

_ZN6icu_7713IcuCApiHelperI21UFormattedNumberRangeNS_6number4impl25UFormattedNumberRangeImplELi1178881536EE8validateEPS1_R10UErrorCode.exit.thread: ; preds = %.sink.split.i, %7, %.sink.split.i.i, %_ZN6icu_7713IcuCApiHelperI21UFormattedNumberRangeNS_6number4impl25UFormattedNumberRangeImplELi1178881536EE8validateEPS1_R10UErrorCode.exit
  ret void
}